target datalayout = "e-m:e-p270:32:32-p271:32:32-p272:64:64-i64:64-i128:128-f80:128-n8:16:32:64-S128"
target triple = "x86_64-pc-linux-gnu"

%struct.nghttp2_session = type { %struct.nghttp2_map, %struct.nghttp2_stream, %struct.nghttp2_outbound_queue, %struct.nghttp2_outbound_queue, %struct.nghttp2_outbound_queue, [8 x %struct.anon], %struct.nghttp2_active_outbound_item, %struct.nghttp2_inbound_frame, %struct.nghttp2_hd_deflater, %struct.nghttp2_hd_inflater, %struct.nghttp2_session_callbacks, %struct.nghttp2_mem, ptr, ptr, ptr, ptr, ptr, ptr, i64, i64, i64, i64, i64, i64, i64, i64, i64, i64, i64, i64, i32, i32, i32, i32, i32, i32, i32, i32, i32, i32, i32, i32, i8, %struct.nghttp2_settings_storage, %struct.nghttp2_settings_storage, i32, i32, i32, i8, i8, i8, i8, i8, i8, i8, [32 x i8] }
%struct.nghttp2_map = type { ptr, ptr, i64, i32, i32 }
%struct.nghttp2_stream = type { %struct.nghttp2_pq_entry, %struct.nghttp2_pq, i64, i64, i64, i64, i64, i64, ptr, ptr, ptr, ptr, ptr, ptr, ptr, ptr, i64, i32, i32, i32, i32, i32, i32, i32, i32, i32, i32, i16, i32, i8, i8, i8, i8, i8, i8 }
%struct.nghttp2_pq_entry = type { i64 }
%struct.nghttp2_pq = type { ptr, ptr, i64, i64, ptr }
%struct.nghttp2_outbound_queue = type { ptr, ptr, i64 }
%struct.anon = type { %struct.nghttp2_pq }
%struct.nghttp2_active_outbound_item = type { ptr, %struct.nghttp2_bufs, i32 }
%struct.nghttp2_bufs = type { ptr, ptr, ptr, i64, i64, i64, i64, i64 }
%struct.nghttp2_inbound_frame = type { %union.nghttp2_frame, %union.nghttp2_ext_frame_payload, ptr, %struct.nghttp2_buf, %struct.nghttp2_buf, ptr, i64, i64, i64, i64, i32, [32 x i8] }
%union.nghttp2_frame = type { %struct.nghttp2_headers }
%struct.nghttp2_headers = type { %struct.nghttp2_frame_hd, i64, %struct.nghttp2_priority_spec, ptr, i64, i32 }
%struct.nghttp2_frame_hd = type { i64, i32, i8, i8, i8 }
%struct.nghttp2_priority_spec = type { i32, i32, i8 }
%union.nghttp2_ext_frame_payload = type { %struct.nghttp2_ext_altsvc }
%struct.nghttp2_ext_altsvc = type { ptr, i64, ptr, i64 }
%struct.nghttp2_buf = type { ptr, ptr, ptr, ptr, ptr }
%struct.nghttp2_hd_deflater = type { %struct.nghttp2_hd_context, %struct.nghttp2_hd_map, i64, i64, i8 }
%struct.nghttp2_hd_context = type { %struct.nghttp2_hd_ringbuf, ptr, i64, i64, i32, i8 }
%struct.nghttp2_hd_ringbuf = type { ptr, i64, i64, i64 }
%struct.nghttp2_hd_map = type { [128 x ptr] }
%struct.nghttp2_hd_inflater = type { %struct.nghttp2_hd_context, %struct.nghttp2_hd_huff_decode_context, %struct.nghttp2_buf, %struct.nghttp2_buf, ptr, ptr, ptr, ptr, i64, i64, i64, i64, i64, i32, i32, i8, i8, i8 }
%struct.nghttp2_hd_huff_decode_context = type { i16 }
%struct.nghttp2_session_callbacks = type { ptr, ptr, ptr, ptr, ptr, ptr, ptr, ptr, ptr, ptr, ptr, ptr, ptr, ptr, ptr, ptr, ptr, ptr, ptr, ptr, ptr, ptr, ptr }
%struct.nghttp2_mem = type { ptr, ptr, ptr, ptr, ptr }
%struct.nghttp2_settings_storage = type { i32, i32, i32, i32, i32, i32, i32, i32 }
%struct.nghttp2_outbound_item = type { %union.nghttp2_frame, %union.nghttp2_ext_frame_payload, %union.nghttp2_aux_data, i64, ptr, i8 }
%union.nghttp2_aux_data = type { %struct.nghttp2_headers_aux_data }
%struct.nghttp2_headers_aux_data = type { %struct.nghttp2_data_provider, ptr, i32, i8 }
%struct.nghttp2_data_provider = type { %union.nghttp2_data_source, ptr }
%union.nghttp2_data_source = type { ptr }

; Function Attrs: nounwind uwtable
define internal ptr @session_sched_get_next_outbound_item(ptr noundef %0) #0 {
  %2 = alloca ptr, align 8
  %3 = alloca ptr, align 8
  %4 = alloca i64, align 8
  %5 = alloca ptr, align 8
  %6 = alloca ptr, align 8
  %7 = alloca i32, align 4
  store ptr %0, ptr %3, align 8, !tbaa !8
  call void @llvm.lifetime.start.p0(i64 8, ptr %4) #9
  call void @llvm.lifetime.start.p0(i64 8, ptr %5) #9
  call void @llvm.lifetime.start.p0(i64 8, ptr %6) #9
  store i64 0, ptr %4, align 8, !tbaa !44
  br label %8

8:                                                ; preds = %27, %1
  %9 = load i64, ptr %4, align 8, !tbaa !44
  %10 = icmp ult i64 %9, 8
  br i1 %10, label %11, label %30

11:                                               ; preds = %8
  %12 = load ptr, ptr %3, align 8, !tbaa !8
  %13 = getelementptr inbounds nuw %struct.nghttp2_session, ptr %12, i32 0, i32 5
  %14 = load i64, ptr %4, align 8, !tbaa !44
  %15 = getelementptr inbounds nuw [8 x %struct.anon], ptr %13, i64 0, i64 %14
  %16 = getelementptr inbounds nuw %struct.anon, ptr %15, i32 0, i32 0
  %17 = call ptr @nghttp2_pq_top(ptr noundef %16)
  store ptr %17, ptr %5, align 8, !tbaa !53
  %18 = load ptr, ptr %5, align 8, !tbaa !53
  %19 = icmp ne ptr %18, null
  br i1 %19, label %21, label %20

20:                                               ; preds = %11
  br label %27

21:                                               ; preds = %11
  %22 = load ptr, ptr %5, align 8, !tbaa !53
  %23 = getelementptr inbounds i8, ptr %22, i64 0
  store ptr %23, ptr %6, align 8, !tbaa !46
  %24 = load ptr, ptr %6, align 8, !tbaa !46
  %25 = getelementptr inbounds nuw %struct.nghttp2_stream, ptr %24, i32 0, i32 15
  %26 = load ptr, ptr %25, align 8, !tbaa !105
  store ptr %26, ptr %2, align 8
  store i32 1, ptr %7, align 4
  br label %31

27:                                               ; preds = %20
  %28 = load i64, ptr %4, align 8, !tbaa !44
  %29 = add i64 %28, 1
  store i64 %29, ptr %4, align 8, !tbaa !44
  br label %8, !llvm.loop !166

30:                                               ; preds = %8
  store ptr null, ptr %2, align 8
  store i32 1, ptr %7, align 4
  br label %31

31:                                               ; preds = %30, %21
  call void @llvm.lifetime.end.p0(i64 8, ptr %6) #9
  call void @llvm.lifetime.end.p0(i64 8, ptr %5) #9
  call void @llvm.lifetime.end.p0(i64 8, ptr %4) #9
  %32 = load ptr, ptr %2, align 8
  ret ptr %32
}

; Function Attrs: nounwind uwtable
define internal i32 @session_is_outgoing_concurrent_streams_max(ptr noundef %0) #0 {
  %2 = alloca ptr, align 8
  store ptr %0, ptr %2, align 8, !tbaa !8
  %3 = load ptr, ptr %2, align 8, !tbaa !8
  %4 = getelementptr inbounds nuw %struct.nghttp2_session, ptr %3, i32 0, i32 43
  %5 = getelementptr inbounds nuw %struct.nghttp2_settings_storage, ptr %4, i32 0, i32 2
  %6 = load i32, ptr %5, align 4, !tbaa !69
  %7 = zext i32 %6 to i64
  %8 = load ptr, ptr %2, align 8, !tbaa !8
  %9 = getelementptr inbounds nuw %struct.nghttp2_session, ptr %8, i32 0, i32 19
  %10 = load i64, ptr %9, align 8, !tbaa !136
  %11 = icmp ule i64 %7, %10
  %12 = zext i1 %11 to i32
  ret i32 %12
}

; Function Attrs: nounwind uwtable
define dso_local ptr @nghttp2_session_pop_next_ob_item(ptr noundef %0) #0 {
  %2 = alloca ptr, align 8
  %3 = alloca ptr, align 8
  %4 = alloca ptr, align 8
  %5 = alloca i32, align 4
  store ptr %0, ptr %3, align 8, !tbaa !8
  call void @llvm.lifetime.start.p0(i64 8, ptr %4) #9
  %6 = load ptr, ptr %3, align 8, !tbaa !8
  %7 = getelementptr inbounds nuw %struct.nghttp2_session, ptr %6, i32 0, i32 2
  %8 = getelementptr inbounds nuw %struct.nghttp2_outbound_queue, ptr %7, i32 0, i32 0
  %9 = load ptr, ptr %8, align 8, !tbaa !164
  store ptr %9, ptr %4, align 8, !tbaa !106
  %10 = load ptr, ptr %4, align 8, !tbaa !106
  %11 = icmp ne ptr %10, null
  br i1 %11, label %12, label %18

12:                                               ; preds = %1
  %13 = load ptr, ptr %3, align 8, !tbaa !8
  %14 = getelementptr inbounds nuw %struct.nghttp2_session, ptr %13, i32 0, i32 2
  call void @nghttp2_outbound_queue_pop(ptr noundef %14)
  %15 = load ptr, ptr %4, align 8, !tbaa !106
  %16 = getelementptr inbounds nuw %struct.nghttp2_outbound_item, ptr %15, i32 0, i32 5
  store i8 0, ptr %16, align 8, !tbaa !107
  %17 = load ptr, ptr %4, align 8, !tbaa !106
  store ptr %17, ptr %2, align 8
  store i32 1, ptr %5, align 4
  br label %66

18:                                               ; preds = %1
  %19 = load ptr, ptr %3, align 8, !tbaa !8
  %20 = getelementptr inbounds nuw %struct.nghttp2_session, ptr %19, i32 0, i32 3
  %21 = getelementptr inbounds nuw %struct.nghttp2_outbound_queue, ptr %20, i32 0, i32 0
  %22 = load ptr, ptr %21, align 8, !tbaa !165
  store ptr %22, ptr %4, align 8, !tbaa !106
  %23 = load ptr, ptr %4, align 8, !tbaa !106
  %24 = icmp ne ptr %23, null
  br i1 %24, label %25, label %31

25:                                               ; preds = %18
  %26 = load ptr, ptr %3, align 8, !tbaa !8
  %27 = getelementptr inbounds nuw %struct.nghttp2_session, ptr %26, i32 0, i32 3
  call void @nghttp2_outbound_queue_pop(ptr noundef %27)
  %28 = load ptr, ptr %4, align 8, !tbaa !106
  %29 = getelementptr inbounds nuw %struct.nghttp2_outbound_item, ptr %28, i32 0, i32 5
  store i8 0, ptr %29, align 8, !tbaa !107
  %30 = load ptr, ptr %4, align 8, !tbaa !106
  store ptr %30, ptr %2, align 8
  store i32 1, ptr %5, align 4
  br label %66

31:                                               ; preds = %18
  %32 = load ptr, ptr %3, align 8, !tbaa !8
  %33 = call i32 @session_is_outgoing_concurrent_streams_max(ptr noundef %32)
  %34 = icmp ne i32 %33, 0
  br i1 %34, label %49, label %35

35:                                               ; preds = %31
  %36 = load ptr, ptr %3, align 8, !tbaa !8
  %37 = getelementptr inbounds nuw %struct.nghttp2_session, ptr %36, i32 0, i32 4
  %38 = getelementptr inbounds nuw %struct.nghttp2_outbound_queue, ptr %37, i32 0, i32 0
  %39 = load ptr, ptr %38, align 8, !tbaa !145
  store ptr %39, ptr %4, align 8, !tbaa !106
  %40 = load ptr, ptr %4, align 8, !tbaa !106
  %41 = icmp ne ptr %40, null
  br i1 %41, label %42, label %48

42:                                               ; preds = %35
  %43 = load ptr, ptr %3, align 8, !tbaa !8
  %44 = getelementptr inbounds nuw %struct.nghttp2_session, ptr %43, i32 0, i32 4
  call void @nghttp2_outbound_queue_pop(ptr noundef %44)
  %45 = load ptr, ptr %4, align 8, !tbaa !106
  %46 = getelementptr inbounds nuw %struct.nghttp2_outbound_item, ptr %45, i32 0, i32 5
  store i8 0, ptr %46, align 8, !tbaa !107
  %47 = load ptr, ptr %4, align 8, !tbaa !106
  store ptr %47, ptr %2, align 8
  store i32 1, ptr %5, align 4
  br label %66

48:                                               ; preds = %35
  br label %49

49:                                               ; preds = %48, %31
  %50 = load ptr, ptr %3, align 8, !tbaa !8
  %51 = getelementptr inbounds nuw %struct.nghttp2_session, ptr %50, i32 0, i32 37
  %52 = load i32, ptr %51, align 4, !tbaa !58
  %53 = icmp sgt i32 %52, 0
  br i1 %53, label %54, label %65

54:                                               ; preds = %49
  %55 = load ptr, ptr %3, align 8, !tbaa !8
  %56 = getelementptr inbounds nuw %struct.nghttp2_session, ptr %55, i32 0, i32 1
  %57 = call ptr @nghttp2_stream_next_outbound_item(ptr noundef %56)
  store ptr %57, ptr %4, align 8, !tbaa !106
  %58 = load ptr, ptr %4, align 8, !tbaa !106
  %59 = icmp ne ptr %58, null
  br i1 %59, label %60, label %62

60:                                               ; preds = %54
  %61 = load ptr, ptr %4, align 8, !tbaa !106
  store ptr %61, ptr %2, align 8
  store i32 1, ptr %5, align 4
  br label %66

62:                                               ; preds = %54
  %63 = load ptr, ptr %3, align 8, !tbaa !8
  %64 = call ptr @session_sched_get_next_outbound_item(ptr noundef %63)
  store ptr %64, ptr %2, align 8
  store i32 1, ptr %5, align 4
  br label %66

65:                                               ; preds = %49
  store ptr null, ptr %2, align 8
  store i32 1, ptr %5, align 4
  br label %66

66:                                               ; preds = %65, %62, %60, %42, %25, %12
  call void @llvm.lifetime.end.p0(i64 8, ptr %4) #9
  %67 = load ptr, ptr %2, align 8
  ret ptr %67
}