; Function Attrs: nounwind uwtable
define dso_local ptr @nghttp2_session_pop_next_ob_item(ptr noundef %0) local_unnamed_addr #1 {
  %2 = getelementptr inbounds nuw i8, ptr %0, i64 256
  %3 = load ptr, ptr %2, align 8, !tbaa !161
  %.not = icmp eq ptr %3, null
  br i1 %.not, label %6, label %4

4:                                                ; preds = %1
  tail call void @nghttp2_outbound_queue_pop(ptr noundef nonnull %2) #20
  %5 = getelementptr inbounds nuw i8, ptr %3, i64 144
  store i8 0, ptr %5, align 8, !tbaa !109
  br label %session_sched_get_next_outbound_item.exit

6:                                                ; preds = %1
  %7 = getelementptr inbounds nuw i8, ptr %0, i64 280
  %8 = load ptr, ptr %7, align 8, !tbaa !162
  %.not26 = icmp eq ptr %8, null
  br i1 %.not26, label %11, label %9

9:                                                ; preds = %6
  tail call void @nghttp2_outbound_queue_pop(ptr noundef nonnull %7) #20
  %10 = getelementptr inbounds nuw i8, ptr %8, i64 144
  store i8 0, ptr %10, align 8, !tbaa !109
  br label %session_sched_get_next_outbound_item.exit

11:                                               ; preds = %6
  %12 = getelementptr i8, ptr %0, i64 2624
  %.val = load i64, ptr %12, align 8, !tbaa !136
  %13 = getelementptr i8, ptr %0, i64 2772
  %.val30 = load i32, ptr %13, align 4, !tbaa !66
  %14 = zext i32 %.val30 to i64
  %.not31 = icmp ult i64 %.val, %14
  br i1 %.not31, label %15, label %20

15:                                               ; preds = %11
  %16 = getelementptr inbounds nuw i8, ptr %0, i64 304
  %17 = load ptr, ptr %16, align 8, !tbaa !148
  %.not28 = icmp eq ptr %17, null
  br i1 %.not28, label %20, label %18

18:                                               ; preds = %15
  tail call void @nghttp2_outbound_queue_pop(ptr noundef nonnull %16) #20
  %19 = getelementptr inbounds nuw i8, ptr %17, i64 144
  store i8 0, ptr %19, align 8, !tbaa !109
  br label %session_sched_get_next_outbound_item.exit

20:                                               ; preds = %15, %11
  %21 = getelementptr inbounds nuw i8, ptr %0, i64 2740
  %22 = load i32, ptr %21, align 4, !tbaa !48
  %23 = icmp sgt i32 %22, 0
  br i1 %23, label %24, label %session_sched_get_next_outbound_item.exit

24:                                               ; preds = %20
  %25 = getelementptr inbounds nuw i8, ptr %0, i64 32
  %26 = tail call ptr @nghttp2_stream_next_outbound_item(ptr noundef nonnull %25) #20
  %.not29 = icmp eq ptr %26, null
  br i1 %.not29, label %27, label %session_sched_get_next_outbound_item.exit

27:                                               ; preds = %24
  %28 = getelementptr inbounds nuw i8, ptr %0, i64 328
  br label %31

29:                                               ; preds = %31
  %30 = add nuw nsw i64 %.079.i, 1
  %exitcond.not.i = icmp eq i64 %30, 8
  br i1 %exitcond.not.i, label %session_sched_get_next_outbound_item.exit, label %31, !llvm.loop !164

31:                                               ; preds = %29, %27
  %.079.i = phi i64 [ 0, %27 ], [ %30, %29 ]
  %32 = getelementptr inbounds nuw [8 x %struct.anon], ptr %28, i64 0, i64 %.079.i
  %33 = tail call ptr @nghttp2_pq_top(ptr noundef nonnull %32) #20
  %.not.i = icmp eq ptr %33, null
  br i1 %.not.i, label %29, label %34

34:                                               ; preds = %31
  %35 = getelementptr inbounds nuw i8, ptr %33, i64 152
  %36 = load ptr, ptr %35, align 8, !tbaa !108
  br label %session_sched_get_next_outbound_item.exit

session_sched_get_next_outbound_item.exit:        ; preds = %29, %34, %20, %24, %18, %9, %4
  %.0 = phi ptr [ %3, %4 ], [ %8, %9 ], [ %17, %18 ], [ %26, %24 ], [ null, %20 ], [ %36, %34 ], [ null, %29 ]
  ret ptr %.0
}